target datalayout = "e-m:e-p270:32:32-p271:32:32-p272:64:64-i64:64-i128:128-f80:128-n8:16:32:64-S128"
target triple = "x86_64-pc-linux-gnu"

%struct.SDL_Window = type { i32, ptr, ptr, i32, i32, i32, i32, i32, i32, i32, i32, float, float, i32, i32, i64, i64, float, i8, i8, i32, i32, %struct.SDL_Rect, %struct.SDL_Rect, %struct.SDL_Rect, i8, i8, i8, %struct.SDL_DisplayMode, %struct.SDL_DisplayMode, %struct.SDL_HDROutputProperties, float, ptr, i8, i8, i8, i8, i8, i8, i8, i8, i8, i32, i32, i32, i32, %struct.SDL_Rect, i32, i8, %struct.SDL_Rect, i32, %struct.SDL_Rect, ptr, ptr, i32, float, i32, i32, ptr, ptr, ptr, ptr, ptr, ptr, ptr, ptr, ptr }
%struct.SDL_DisplayMode = type { i32, i32, i32, i32, float, float, i32, i32, ptr }
%struct.SDL_HDROutputProperties = type { float, float }
%struct.SDL_Rect = type { i32, i32, i32, i32 }

@.str.1 = private unnamed_addr constant [41 x i8] c"Video subsystem has not been initialized\00", align 1
@_this = internal global ptr null, align 8
@.str.20 = private unnamed_addr constant [15 x i8] c"Invalid window\00", align 1
@.str.22 = private unnamed_addr constant [35 x i8] c"Operation invalid on popup windows\00", align 1

; Function Attrs: nounwind uwtable
define hidden zeroext i1 @SDL_UninitializedVideo() #0 {
  %1 = call zeroext i1 (ptr, ...) @SDL_SetError_REAL(ptr noundef @.str.1)
  ret i1 %1
}

; Function Attrs: nounwind uwtable
define hidden float @SDL_GetWindowProgressValue_REAL(ptr noundef %0) #0 {
  %2 = alloca float, align 4
  %3 = alloca ptr, align 8
  store ptr %0, ptr %3, align 8
  %4 = load ptr, ptr @_this, align 8
  %5 = icmp ne ptr %4, null
  br i1 %5, label %8, label %6

6:                                                ; preds = %1
  %7 = call zeroext i1 @SDL_UninitializedVideo()
  store float -1.000000e+00, ptr %2, align 4
  br label %25

8:                                                ; preds = %1
  %9 = load ptr, ptr %3, align 8
  %10 = call zeroext i1 @SDL_ObjectValid(ptr noundef %9, i32 noundef 1)
  br i1 %10, label %13, label %11

11:                                               ; preds = %8
  %12 = call zeroext i1 (ptr, ...) @SDL_SetError_REAL(ptr noundef @.str.20)
  store float -1.000000e+00, ptr %2, align 4
  br label %25

13:                                               ; preds = %8
  %14 = load ptr, ptr %3, align 8
  %15 = getelementptr inbounds nuw %struct.SDL_Window, ptr %14, i32 0, i32 15
  %16 = load i64, ptr %15, align 8
  %17 = and i64 %16, 786432
  %18 = icmp ne i64 %17, 0
  br i1 %18, label %19, label %21

19:                                               ; preds = %13
  %20 = call zeroext i1 (ptr, ...) @SDL_SetError_REAL(ptr noundef @.str.22)
  store float -1.000000e+00, ptr %2, align 4
  br label %25

21:                                               ; preds = %13
  %22 = load ptr, ptr %3, align 8
  %23 = getelementptr inbounds nuw %struct.SDL_Window, ptr %22, i32 0, i32 55
  %24 = load float, ptr %23, align 4
  store float %24, ptr %2, align 4
  br label %25

25:                                               ; preds = %21, %19, %11, %6
  %26 = load float, ptr %2, align 4
  ret float %26
}