; Function Attrs: nounwind uwtable
define hidden float @SDL_GetWindowProgressValue_REAL(ptr noundef %0) local_unnamed_addr #0 {
  %2 = load ptr, ptr @_this, align 8
  %.not = icmp eq ptr %2, null
  br i1 %.not, label %3, label %5

3:                                                ; preds = %1
  %4 = tail call zeroext i1 (ptr, ...) @SDL_SetError_REAL(ptr noundef nonnull @.str.1) #19
  br label %18

5:                                                ; preds = %1
  %6 = tail call zeroext i1 @SDL_ObjectValid(ptr noundef %0, i32 noundef 1) #19
  br i1 %6, label %9, label %7

7:                                                ; preds = %5
  %8 = tail call zeroext i1 (ptr, ...) @SDL_SetError_REAL(ptr noundef nonnull @.str.20) #19
  br label %18

9:                                                ; preds = %5
  %10 = getelementptr inbounds nuw i8, ptr %0, i64 72
  %11 = load i64, ptr %10, align 8
  %12 = and i64 %11, 786432
  %.not4 = icmp eq i64 %12, 0
  br i1 %.not4, label %15, label %13

13:                                               ; preds = %9
  %14 = tail call zeroext i1 (ptr, ...) @SDL_SetError_REAL(ptr noundef nonnull @.str.22) #19
  br label %18

15:                                               ; preds = %9
  %16 = getelementptr inbounds nuw i8, ptr %0, i64 372
  %17 = load float, ptr %16, align 4
  br label %18

18:                                               ; preds = %15, %13, %7, %3
  %.0 = phi float [ -1.000000e+00, %13 ], [ %17, %15 ], [ -1.000000e+00, %7 ], [ -1.000000e+00, %3 ]
  ret float %.0
}